; Function Attrs: mustprogress uwtable
define dso_local noundef zeroext i1 @_ZN4Json9OurReader18addErrorAndRecoverERKNSt7__cxx1112basic_stringIcSt11char_traitsIcESaIcEEERNS0_5TokenENS0_9TokenTypeE(ptr noundef nonnull align 8 dereferenceable(281) %0, ptr noundef nonnull align 8 dereferenceable(32) %1, ptr nocapture noundef nonnull readonly align 8 dereferenceable(24) %2, i32 noundef %3) local_unnamed_addr #2 align 2 personality ptr @__gxx_personality_v0 {
  %5 = alloca %"class.Json::OurReader::Token", align 8
  %6 = alloca %"class.Json::OurReader::ErrorInfo", align 8
  call void @llvm.lifetime.start.p0(i64 64, ptr nonnull %6)
  %7 = getelementptr inbounds i8, ptr %6, i64 24
  call void @_ZNSt7__cxx1112basic_stringIcSt11char_traitsIcESaIcEEC1Ev(ptr noundef nonnull align 8 dereferenceable(32) %7) #39
  call void @llvm.memcpy.p0.p0.i64(ptr noundef nonnull align 8 dereferenceable(24) %6, ptr noundef nonnull align 8 dereferenceable(24) %2, i64 24, i1 false)
  %8 = invoke noundef nonnull align 8 dereferenceable(32) ptr @_ZNSt7__cxx1112basic_stringIcSt11char_traitsIcESaIcEEaSERKS4_(ptr noundef nonnull align 8 dereferenceable(32) %7, ptr noundef nonnull align 8 dereferenceable(32) %1)
          to label %9 unwind label %24

9:                                                ; preds = %4
  %10 = getelementptr inbounds i8, ptr %6, i64 56
  store ptr null, ptr %10, align 8
  %11 = getelementptr inbounds i8, ptr %0, i64 128
  %12 = load ptr, ptr %11, align 8
  %13 = getelementptr inbounds i8, ptr %0, i64 144
  %14 = load ptr, ptr %13, align 8
  %15 = getelementptr inbounds i8, ptr %14, i64 -64
  %.not.i.i = icmp eq ptr %12, %15
  br i1 %.not.i.i, label %22, label %16

16:                                               ; preds = %9
  call void @llvm.memcpy.p0.p0.i64(ptr noundef nonnull align 8 dereferenceable(24) %12, ptr noundef nonnull align 8 dereferenceable(24) %6, i64 24, i1 false)
  %17 = getelementptr inbounds i8, ptr %12, i64 24
  invoke void @_ZNSt7__cxx1112basic_stringIcSt11char_traitsIcESaIcEEC1ERKS4_(ptr noundef nonnull align 8 dereferenceable(32) %17, ptr noundef nonnull align 8 dereferenceable(32) %7)
          to label %.noexc.i unwind label %24

.noexc.i:                                         ; preds = %16
  %18 = getelementptr inbounds i8, ptr %12, i64 56
  %19 = load ptr, ptr %10, align 8
  store ptr %19, ptr %18, align 8
  %20 = load ptr, ptr %11, align 8
  %21 = getelementptr inbounds i8, ptr %20, i64 64
  store ptr %21, ptr %11, align 8
  br label %_ZN4Json9OurReader8addErrorERKNSt7__cxx1112basic_stringIcSt11char_traitsIcESaIcEEERNS0_5TokenEPKc.exit

22:                                               ; preds = %9
  %23 = getelementptr inbounds i8, ptr %0, i64 80
  invoke void @_ZNSt5dequeIN4Json9OurReader9ErrorInfoESaIS2_EE16_M_push_back_auxIJRKS2_EEEvDpOT_(ptr noundef nonnull align 8 dereferenceable(80) %23, ptr noundef nonnull align 8 dereferenceable(64) %6)
          to label %_ZN4Json9OurReader8addErrorERKNSt7__cxx1112basic_stringIcSt11char_traitsIcESaIcEEERNS0_5TokenEPKc.exit unwind label %24

24:                                               ; preds = %22, %16, %4
  %25 = landingpad { ptr, i32 }
          cleanup
  call void @_ZNSt7__cxx1112basic_stringIcSt11char_traitsIcESaIcEED1Ev(ptr noundef nonnull align 8 dereferenceable(32) %7) #39
  resume { ptr, i32 } %25

_ZN4Json9OurReader8addErrorERKNSt7__cxx1112basic_stringIcSt11char_traitsIcESaIcEEERNS0_5TokenEPKc.exit: ; preds = %.noexc.i, %22
  call void @_ZNSt7__cxx1112basic_stringIcSt11char_traitsIcESaIcEED1Ev(ptr noundef nonnull align 8 dereferenceable(32) %7) #39
  call void @llvm.lifetime.end.p0(i64 64, ptr nonnull %6)
  call void @llvm.lifetime.start.p0(i64 24, ptr nonnull %5)
  %26 = getelementptr inbounds i8, ptr %0, i64 96
  %27 = getelementptr inbounds i8, ptr %0, i64 152
  %28 = load ptr, ptr %27, align 8
  %29 = getelementptr inbounds i8, ptr %0, i64 120
  %30 = load ptr, ptr %29, align 8
  %31 = load ptr, ptr %11, align 8
  %32 = getelementptr inbounds i8, ptr %0, i64 136
  %33 = load ptr, ptr %32, align 8
  %34 = getelementptr inbounds i8, ptr %0, i64 112
  %35 = load ptr, ptr %34, align 8
  %36 = load ptr, ptr %26, align 8
  br label %37

37:                                               ; preds = %37, %_ZN4Json9OurReader8addErrorERKNSt7__cxx1112basic_stringIcSt11char_traitsIcESaIcEEERNS0_5TokenEPKc.exit
  %38 = call noundef zeroext i1 @_ZN4Json9OurReader9readTokenERNS0_5TokenE(ptr noundef nonnull align 8 dereferenceable(281) %0, ptr noundef nonnull align 8 dereferenceable(24) %5)
  %39 = load i32, ptr %5, align 8
  %40 = icmp eq i32 %39, %3
  %41 = icmp eq i32 %39, 0
  %or.cond.i = or i1 %40, %41
  br i1 %or.cond.i, label %_ZN4Json9OurReader16recoverFromErrorENS0_9TokenTypeE.exit, label %37, !llvm.loop !165

_ZN4Json9OurReader16recoverFromErrorENS0_9TokenTypeE.exit: ; preds = %37
  %42 = ptrtoint ptr %31 to i64
  %43 = ptrtoint ptr %33 to i64
  %44 = sub i64 %42, %43
  %45 = lshr exact i64 %44, 6
  %46 = ptrtoint ptr %28 to i64
  %47 = ptrtoint ptr %30 to i64
  %48 = sub i64 %46, %47
  %49 = icmp ne ptr %28, null
  %.neg.i.i.i = sext i1 %49 to i64
  %50 = shl nsw i64 %.neg.i.i.i, 3
  %51 = add i64 %48, %50
  %52 = and i64 %51, 4294967288
  %53 = add nuw nsw i64 %45, %52
  %54 = ptrtoint ptr %35 to i64
  %55 = ptrtoint ptr %36 to i64
  %56 = sub i64 %54, %55
  %57 = lshr exact i64 %56, 6
  %58 = add nuw nsw i64 %53, %57
  %59 = getelementptr inbounds i8, ptr %0, i64 80
  %sext.i = shl i64 %58, 32
  %60 = ashr exact i64 %sext.i, 32
  call void @_ZNSt5dequeIN4Json9OurReader9ErrorInfoESaIS2_EE6resizeEm(ptr noundef nonnull align 8 dereferenceable(80) %59, i64 noundef %60)
  call void @llvm.lifetime.end.p0(i64 24, ptr nonnull %5)
  ret i1 false
}